Certificate:
    Data:
        Version: 3 (0x2)
        Serial Number:
            49:75:2d:06:48:04:ec:79:f4:62:d9:93:1e:0f:b5:84
        Signature Algorithm: sha256WithRSAEncryption
        Issuer: CN=Easy-RSA CA
        Validity
            Not Before: Aug 14 12:39:45 2023 GMT
            Not After : Nov 16 12:39:45 2025 GMT
        Subject: CN=4JwOkvGIbHOLqBm5thIxarlnYVywEj4f
        Subject Public Key Info:
            Public Key Algorithm: rsaEncryption
                RSA Public-Key: (2048 bit)
                Modulus:
                    00:b6:ed:a8:cb:2f:50:a6:1f:a4:ef:67:e9:42:50:
                    fb:be:8c:20:22:bd:3d:1e:fd:09:fe:e5:2b:2d:c6:
                    0e:33:2c:47:88:42:a4:a2:9e:d1:9c:d6:5a:e7:07:
                    94:75:f2:c3:65:fa:30:13:7d:4f:91:1b:2c:b1:a5:
                    58:e8:95:38:4d:e3:8d:d8:2a:f0:53:36:72:96:54:
                    fa:e8:b6:86:1f:c8:ff:97:14:43:46:d9:a0:7b:62:
                    ca:fa:87:0f:60:f0:18:39:27:2a:22:46:5b:fe:7f:
                    47:05:2a:cf:84:90:7b:e0:1d:b8:ee:a9:1d:f9:6e:
                    45:2f:97:65:4d:e7:bf:c0:8d:34:86:00:4a:e4:0d:
                    26:2e:c6:0e:30:86:4e:bb:1d:5d:93:76:ab:8e:1a:
                    57:63:bd:c2:d7:7d:21:aa:ad:ad:d9:2a:73:4b:a8:
                    80:e0:dc:3d:29:f2:74:1f:78:09:42:50:f4:fc:c9:
                    33:51:1c:04:e3:24:ba:39:cc:da:8f:d3:5c:79:c6:
                    66:83:8e:94:c3:f2:8a:99:06:70:f9:1b:e4:89:6d:
                    c3:93:5a:75:42:d8:85:2f:e5:07:d3:ed:d1:38:c2:
                    61:a8:53:e7:cb:a7:de:f8:86:74:d3:d5:f6:a8:04:
                    69:69:eb:4b:61:94:8a:b0:63:ae:0e:15:4c:ae:0b:
                    56:d3
                Exponent: 65537 (0x10001)
        X509v3 extensions:
            X509v3 Basic Constraints: 
                CA:FALSE
            X509v3 Subject Key Identifier: 
                B2:54:60:A1:27:D7:AA:6A:CB:42:01:50:A1:85:1C:37:57:95:C0:E7
            X509v3 Authority Key Identifier: 
                keyid:B3:D2:2C:82:8B:0E:2B:54:71:BC:F8:76:50:7A:BD:93:54:FB:EE:9F
                DirName:/CN=Easy-RSA CA
                serial:61:AA:E3:BB:23:68:2A:11:24:7C:34:12:0A:40:C4:05:D8:30:CE:F3

            X509v3 Extended Key Usage: 
                TLS Web Client Authentication
            X509v3 Key Usage: 
                Digital Signature
    Signature Algorithm: sha256WithRSAEncryption
         88:d7:2d:2c:c3:96:c6:26:8f:f4:a0:e7:fa:f4:90:64:7f:93:
         52:59:c5:13:ab:9b:0f:da:7c:11:a2:89:04:69:55:2a:a1:a7:
         b5:d2:8b:ce:91:4c:35:67:b0:c9:88:93:af:ac:7c:32:57:74:
         1a:70:d4:b3:12:6d:7b:b0:62:3d:16:fc:e2:97:36:0f:09:64:
         8f:85:71:96:cf:2f:e8:08:28:37:60:96:ad:42:de:dd:fd:9f:
         a8:03:82:b7:1d:9b:0a:49:66:97:cc:08:f7:d8:e1:a0:06:69:
         ba:87:3e:4e:9f:5e:28:36:ff:36:da:07:fb:04:af:b3:2f:29:
         bd:a9:5d:2e:05:be:94:6f:92:16:9f:dd:98:bd:32:75:33:68:
         0b:39:11:26:5a:07:d3:36:4a:bd:39:27:9b:a2:16:e8:47:8a:
         a6:04:37:ee:b2:15:fa:c2:9a:f1:ae:30:36:9f:60:28:e6:0a:
         7e:4b:cc:dc:c1:04:20:3c:30:f9:bd:b1:bb:66:e7:44:d4:23:
         f6:24:d0:a7:55:a4:2e:11:65:96:6e:fe:e3:e4:27:ce:1b:72:
         45:ef:20:21:3e:07:8a:0e:97:b1:45:b9:3c:58:e6:a7:60:0d:
         89:7e:7d:bd:66:91:65:a5:05:0e:3f:fe:f3:ef:70:4b:32:f0:
         c1:24:d7:7d
-----BEGIN CERTIFICATE-----
MIIDbjCCAlagAwIBAgIQSXUtBkgE7Hn0YtmTHg+1hDANBgkqhkiG9w0BAQsFADAW
MRQwEgYDVQQDDAtFYXN5LVJTQSBDQTAeFw0yMzA4MTQxMjM5NDVaFw0yNTExMTYx
MjM5NDVaMCsxKTAnBgNVBAMMIDRKd09rdkdJYkhPTHFCbTV0aEl4YXJsbllWeXdF
ajRmMIIBIjANBgkqhkiG9w0BAQEFAAOCAQ8AMIIBCgKCAQEAtu2oyy9Qph+k72fp
QlD7vowgIr09Hv0J/uUrLcYOMyxHiEKkop7RnNZa5weUdfLDZfowE31PkRsssaVY
6JU4TeON2CrwUzZyllT66LaGH8j/lxRDRtmge2LK+ocPYPAYOScqIkZb/n9HBSrP
hJB74B247qkd+W5FL5dlTee/wI00hgBK5A0mLsYOMIZOux1dk3arjhpXY73C130h
qq2t2SpzS6iA4Nw9KfJ0H3gJQlD0/MkzURwE4yS6Oczaj9NcecZmg46Uw/KKmQZw
+RvkiW3Dk1p1QtiFL+UH0+3ROMJhqFPny6fe+IZ009X2qARpaetLYZSKsGOuDhVM
rgtW0wIDAQABo4GiMIGfMAkGA1UdEwQCMAAwHQYDVR0OBBYEFLJUYKEn16pqy0IB
UKGFHDdXlcDnMFEGA1UdIwRKMEiAFLPSLIKLDitUcbz4dlB6vZNU++6foRqkGDAW
MRQwEgYDVQQDDAtFYXN5LVJTQSBDQYIUYarjuyNoKhEkfDQSCkDEBdgwzvMwEwYD
VR0lBAwwCgYIKwYBBQUHAwIwCwYDVR0PBAQDAgeAMA0GCSqGSIb3DQEBCwUAA4IB
AQCI1y0sw5bGJo/0oOf69JBkf5NSWcUTq5sP2nwRookEaVUqoae10ovOkUw1Z7DJ
iJOvrHwyV3QacNSzEm17sGI9FvzilzYPCWSPhXGWzy/oCCg3YJatQt7d/Z+oA4K3
HZsKSWaXzAj32OGgBmm6hz5On14oNv822gf7BK+zLym9qV0uBb6Ub5IWn92YvTJ1
M2gLOREmWgfTNkq9OSebohboR4qmBDfushX6wprxrjA2n2Ao5gp+S8zcwQQgPDD5
vbG7ZudE1CP2JNCnVaQuEWWWbv7j5CfOG3JF7yAhPgeKDpexRbk8WOanYA2Jfn29
ZpFlpQUOP/7z73BLMvDBJNd9
-----END CERTIFICATE-----
